; ModuleID = '32/172.c'
source_filename = "32/172.c"
target datalayout = "e-m:e-p270:32:32-p271:32:32-p272:64:64-i64:64-f80:128-n8:16:32:64-S128"
target triple = "x86_64-pc-linux-gnu"

@.str = private unnamed_addr constant [3 x i8] c"%d\00", align 1
@.str.1 = private unnamed_addr constant [6 x i8] c"%s %s\00", align 1
@.str.2 = private unnamed_addr constant [4 x i8] c"%s\0A\00", align 1

; Function Attrs: noinline nounwind uwtable
define dso_local void @main() #0 {
  %1 = alloca i32, align 4
  %2 = alloca i32, align 4
  %3 = alloca i32, align 4
  %4 = alloca i32, align 4
  %5 = alloca i32, align 4
  %6 = alloca [1000 x i8], align 16
  %7 = alloca [1000 x i8], align 16
  %8 = call i32 (i8*, ...) @__isoc99_scanf(i8* getelementptr inbounds ([3 x i8], [3 x i8]* @.str, i64 0, i64 0), i32* %1)
  store i32 0, i32* %2, align 4
  br label %9

9:                                                ; preds = %142, %0
  %10 = load i32, i32* %2, align 4
  %11 = load i32, i32* %1, align 4
  %12 = icmp slt i32 %10, %11
  br i1 %12, label %13, label %145

13:                                               ; preds = %9
  %14 = getelementptr inbounds [1000 x i8], [1000 x i8]* %6, i64 0, i64 0
  %15 = getelementptr inbounds [1000 x i8], [1000 x i8]* %7, i64 0, i64 0
  %16 = call i32 (i8*, ...) @__isoc99_scanf(i8* getelementptr inbounds ([6 x i8], [6 x i8]* @.str.1, i64 0, i64 0), i8* %14, i8* %15)
  %17 = getelementptr inbounds [1000 x i8], [1000 x i8]* %6, i64 0, i64 0
  %18 = call i64 @strlen(i8* %17) #3
  %19 = trunc i64 %18 to i32
  store i32 %19, i32* %4, align 4
  %20 = getelementptr inbounds [1000 x i8], [1000 x i8]* %7, i64 0, i64 0
  %21 = call i64 @strlen(i8* %20) #3
  %22 = trunc i64 %21 to i32
  store i32 %22, i32* %5, align 4
  store i32 0, i32* %3, align 4
  br label %23

23:                                               ; preds = %136, %13
  %24 = load i32, i32* %3, align 4
  %25 = load i32, i32* %5, align 4
  %26 = icmp slt i32 %24, %25
  br i1 %26, label %27, label %139

27:                                               ; preds = %23
  %28 = load i32, i32* %4, align 4
  %29 = sub nsw i32 %28, 1
  %30 = load i32, i32* %3, align 4
  %31 = sub nsw i32 %29, %30
  %32 = sext i32 %31 to i64
  %33 = getelementptr inbounds [1000 x i8], [1000 x i8]* %6, i64 0, i64 %32
  %34 = load i8, i8* %33, align 1
  %35 = sext i8 %34 to i32
  %36 = load i32, i32* %5, align 4
  %37 = sub nsw i32 %36, 1
  %38 = load i32, i32* %3, align 4
  %39 = sub nsw i32 %37, %38
  %40 = sext i32 %39 to i64
  %41 = getelementptr inbounds [1000 x i8], [1000 x i8]* %7, i64 0, i64 %40
  %42 = load i8, i8* %41, align 1
  %43 = sext i8 %42 to i32
  %44 = sub nsw i32 %35, %43
  %45 = icmp sge i32 %44, 0
  br i1 %45, label %46, label %72

46:                                               ; preds = %27
  %47 = load i32, i32* %4, align 4
  %48 = sub nsw i32 %47, 1
  %49 = load i32, i32* %3, align 4
  %50 = sub nsw i32 %48, %49
  %51 = sext i32 %50 to i64
  %52 = getelementptr inbounds [1000 x i8], [1000 x i8]* %6, i64 0, i64 %51
  %53 = load i8, i8* %52, align 1
  %54 = sext i8 %53 to i32
  %55 = load i32, i32* %5, align 4
  %56 = sub nsw i32 %55, 1
  %57 = load i32, i32* %3, align 4
  %58 = sub nsw i32 %56, %57
  %59 = sext i32 %58 to i64
  %60 = getelementptr inbounds [1000 x i8], [1000 x i8]* %7, i64 0, i64 %59
  %61 = load i8, i8* %60, align 1
  %62 = sext i8 %61 to i32
  %63 = sub nsw i32 %54, %62
  %64 = add nsw i32 %63, 48
  %65 = trunc i32 %64 to i8
  %66 = load i32, i32* %4, align 4
  %67 = sub nsw i32 %66, 1
  %68 = load i32, i32* %3, align 4
  %69 = sub nsw i32 %67, %68
  %70 = sext i32 %69 to i64
  %71 = getelementptr inbounds [1000 x i8], [1000 x i8]* %6, i64 0, i64 %70
  store i8 %65, i8* %71, align 1
  br label %135

72:                                               ; preds = %27
  %73 = load i32, i32* %4, align 4
  %74 = sub nsw i32 %73, 1
  %75 = load i32, i32* %3, align 4
  %76 = sub nsw i32 %74, %75
  %77 = sext i32 %76 to i64
  %78 = getelementptr inbounds [1000 x i8], [1000 x i8]* %6, i64 0, i64 %77
  %79 = load i8, i8* %78, align 1
  %80 = sext i8 %79 to i32
  %81 = load i32, i32* %5, align 4
  %82 = sub nsw i32 %81, 1
  %83 = load i32, i32* %3, align 4
  %84 = sub nsw i32 %82, %83
  %85 = sext i32 %84 to i64
  %86 = getelementptr inbounds [1000 x i8], [1000 x i8]* %7, i64 0, i64 %85
  %87 = load i8, i8* %86, align 1
  %88 = sext i8 %87 to i32
  %89 = sub nsw i32 %80, %88
  %90 = icmp slt i32 %89, 0
  br i1 %90, label %91, label %134

91:                                               ; preds = %72
  %92 = load i32, i32* %4, align 4
  %93 = sub nsw i32 %92, 1
  %94 = load i32, i32* %3, align 4
  %95 = sub nsw i32 %93, %94
  %96 = sext i32 %95 to i64
  %97 = getelementptr inbounds [1000 x i8], [1000 x i8]* %6, i64 0, i64 %96
  %98 = load i8, i8* %97, align 1
  %99 = sext i8 %98 to i32
  %100 = add nsw i32 %99, 10
  %101 = load i32, i32* %5, align 4
  %102 = sub nsw i32 %101, 1
  %103 = load i32, i32* %3, align 4
  %104 = sub nsw i32 %102, %103
  %105 = sext i32 %104 to i64
  %106 = getelementptr inbounds [1000 x i8], [1000 x i8]* %7, i64 0, i64 %105
  %107 = load i8, i8* %106, align 1
  %108 = sext i8 %107 to i32
  %109 = sub nsw i32 %100, %108
  %110 = add nsw i32 %109, 48
  %111 = trunc i32 %110 to i8
  %112 = load i32, i32* %4, align 4
  %113 = sub nsw i32 %112, 1
  %114 = load i32, i32* %3, align 4
  %115 = sub nsw i32 %113, %114
  %116 = sext i32 %115 to i64
  %117 = getelementptr inbounds [1000 x i8], [1000 x i8]* %6, i64 0, i64 %116
  store i8 %111, i8* %117, align 1
  %118 = load i32, i32* %4, align 4
  %119 = sub nsw i32 %118, 2
  %120 = load i32, i32* %3, align 4
  %121 = sub nsw i32 %119, %120
  %122 = sext i32 %121 to i64
  %123 = getelementptr inbounds [1000 x i8], [1000 x i8]* %6, i64 0, i64 %122
  %124 = load i8, i8* %123, align 1
  %125 = sext i8 %124 to i32
  %126 = sub nsw i32 %125, 1
  %127 = trunc i32 %126 to i8
  %128 = load i32, i32* %4, align 4
  %129 = sub nsw i32 %128, 2
  %130 = load i32, i32* %3, align 4
  %131 = sub nsw i32 %129, %130
  %132 = sext i32 %131 to i64
  %133 = getelementptr inbounds [1000 x i8], [1000 x i8]* %6, i64 0, i64 %132
  store i8 %127, i8* %133, align 1
  br label %134

134:                                              ; preds = %91, %72
  br label %135

135:                                              ; preds = %134, %46
  br label %136

136:                                              ; preds = %135
  %137 = load i32, i32* %3, align 4
  %138 = add nsw i32 %137, 1
  store i32 %138, i32* %3, align 4
  br label %23

139:                                              ; preds = %23
  %140 = getelementptr inbounds [1000 x i8], [1000 x i8]* %6, i64 0, i64 0
  %141 = call i32 (i8*, ...) @printf(i8* getelementptr inbounds ([4 x i8], [4 x i8]* @.str.2, i64 0, i64 0), i8* %140)
  br label %142

142:                                              ; preds = %139
  %143 = load i32, i32* %2, align 4
  %144 = add nsw i32 %143, 1
  store i32 %144, i32* %2, align 4
  br label %9

145:                                              ; preds = %9
  ret void
}

declare dso_local i32 @__isoc99_scanf(i8*, ...) #1

; Function Attrs: nounwind readonly
declare dso_local i64 @strlen(i8*) #2

declare dso_local i32 @printf(i8*, ...) #1


!llvm.module.flags = !{!0}
!llvm.ident = !{!1}

!0 = !{i32 1, !"wchar_size", i32 4}
!1 = !{!"clang version 10.0.0-4ubuntu1 "}
